target datalayout = "e-m:e-p270:32:32-p271:32:32-p272:64:64-i64:64-i128:128-f80:128-n8:16:32:64-S128"
target triple = "x86_64-pc-linux-gnu"

%"struct.faiss::IndexBinary" = type { ptr, i32, i32, i64, i8, i8, i32 }
%"struct.faiss::IndexBinaryFromFloat" = type <{ %"struct.faiss::IndexBinary", ptr, i8, [7 x i8] }>
%"struct.faiss::Index" = type <{ ptr, i32, [4 x i8], i64, i8, i8, [2 x i8], i32, float, [4 x i8] }>

; Function Attrs: mustprogress uwtable
define void @_ZN5faiss20IndexBinaryFromFloat5resetEv(ptr noundef nonnull align 8 dereferenceable(41) %0) unnamed_addr #1 align 2 {
  %2 = alloca ptr, align 8
  store ptr %0, ptr %2, align 8
  %3 = load ptr, ptr %2, align 8
  %4 = getelementptr inbounds %"struct.faiss::IndexBinaryFromFloat", ptr %3, i32 0, i32 1
  %5 = load ptr, ptr %4, align 8
  %6 = load ptr, ptr %5, align 8
  %7 = getelementptr inbounds ptr, ptr %6, i64 8
  %8 = load ptr, ptr %7, align 8
  call void %8(ptr noundef nonnull align 8 dereferenceable(36) %5)
  %9 = getelementptr inbounds %"struct.faiss::IndexBinaryFromFloat", ptr %3, i32 0, i32 1
  %10 = load ptr, ptr %9, align 8
  %11 = getelementptr inbounds %"struct.faiss::Index", ptr %10, i32 0, i32 3
  %12 = load i64, ptr %11, align 8
  %13 = getelementptr inbounds %"struct.faiss::IndexBinary", ptr %3, i32 0, i32 3
  store i64 %12, ptr %13, align 8
  ret void
}