; Function Attrs: mustprogress uwtable
define void @_ZN5faiss20IndexBinaryFromFloat5resetEv(ptr nocapture noundef nonnull align 8 dereferenceable(41) %0) unnamed_addr #1 align 2 {
  %2 = getelementptr inbounds i8, ptr %0, i64 32
  %3 = load ptr, ptr %2, align 8
  %4 = load ptr, ptr %3, align 8
  %5 = getelementptr inbounds i8, ptr %4, i64 64
  %6 = load ptr, ptr %5, align 8
  tail call void %6(ptr noundef nonnull align 8 dereferenceable(36) %3)
  %7 = load ptr, ptr %2, align 8
  %8 = getelementptr inbounds i8, ptr %7, i64 16
  %9 = load i64, ptr %8, align 8
  %10 = getelementptr inbounds i8, ptr %0, i64 16
  store i64 %9, ptr %10, align 8
  ret void
}